; Function Attrs: nounwind sspstrong uwtable
define dso_local void @msix_vector_unuse(ptr noundef readonly captures(none) %dev, i32 noundef %vector) local_unnamed_addr #0 {
entry:
  %msix_entries_nr = getelementptr inbounds nuw i8, ptr %dev, i64 1268
  %0 = load i32, ptr %msix_entries_nr, align 4
  %cmp = icmp ult i32 %vector, %0
  br i1 %cmp, label %if.end, label %if.else

if.else:                                          ; preds = %entry
  tail call void @__assert_fail(ptr noundef nonnull @.str, ptr noundef nonnull @.str.1, i32 noundef 576, ptr noundef nonnull @__PRETTY_FUNCTION__.msix_vector_unuse) #15
  unreachable

if.end:                                           ; preds = %entry
  %msix_entry_used = getelementptr inbounds nuw i8, ptr %dev, i64 2144
  %1 = load ptr, ptr %msix_entry_used, align 16
  %idxprom = zext i32 %vector to i64
  %arrayidx = getelementptr i32, ptr %1, i64 %idxprom
  %2 = load i32, ptr %arrayidx, align 4
  %tobool.not = icmp eq i32 %2, 0
  br i1 %tobool.not, label %return, label %if.end2

if.end2:                                          ; preds = %if.end
  %dec = add i32 %2, -1
  store i32 %dec, ptr %arrayidx, align 4
  %tobool6.not = icmp eq i32 %dec, 0
  br i1 %tobool6.not, label %if.end8, label %return

if.end8:                                          ; preds = %if.end2
  %rem1.i.i = and i32 %vector, 7
  %shl.i.i = shl nuw nsw i32 1, %rem1.i.i
  %conv.i.i = trunc nuw i32 %shl.i.i to i8
  %not.i = xor i8 %conv.i.i, -1
  %3 = getelementptr i8, ptr %dev, i64 1280
  %dev.val.i = load ptr, ptr %3, align 16
  %div.i.i = sdiv i32 %vector, 8
  %idx.ext.i.i = sext i32 %div.i.i to i64
  %add.ptr.i.i = getelementptr i8, ptr %dev.val.i, i64 %idx.ext.i.i
  %4 = load i8, ptr %add.ptr.i.i, align 1
  %and.i = and i8 %4, %not.i
  store i8 %and.i, ptr %add.ptr.i.i, align 1
  br label %return

return:                                           ; preds = %if.end2, %if.end, %if.end8
  ret void
}